target datalayout = "e-m:e-p270:32:32-p271:32:32-p272:64:64-i64:64-i128:128-f80:128-n8:16:32:64-S128"
target triple = "x86_64-unknown-linux-gnu"

%struct.grpc_call_stack = type { %struct.grpc_stream_refcount, i64 }
%struct.grpc_stream_refcount = type { %"class.grpc_core::RefCount", %struct.grpc_closure }
%"class.grpc_core::RefCount" = type { %"struct.std::atomic.7" }
%"struct.std::atomic.7" = type { %"struct.std::__atomic_base.8" }
%"struct.std::__atomic_base.8" = type { i64 }
%struct.grpc_closure = type { %union.anon, ptr, ptr, %union.anon.9 }
%union.anon = type { ptr }
%union.anon.9 = type { i64 }
%"class.absl::lts_20230802::Status" = type { i64 }
%"class.std::__cxx11::basic_string" = type { %"struct.std::__cxx11::basic_string<char>::_Alloc_hider", i64, %union.anon.14 }
%"struct.std::__cxx11::basic_string<char>::_Alloc_hider" = type { ptr }
%union.anon.14 = type { i64, [8 x i8] }
%class.anon.303 = type { ptr, ptr }
%"struct.absl::lts_20230802::status_internal::StatusRep" = type { %"struct.std::atomic.323", i32, %"class.std::__cxx11::basic_string", %"class.std::unique_ptr.325" }
%"struct.std::atomic.323" = type { %"struct.std::__atomic_base.324" }
%"struct.std::__atomic_base.324" = type { i32 }
%"class.std::unique_ptr.325" = type { %"struct.std::__uniq_ptr_data.326" }
%"struct.std::__uniq_ptr_data.326" = type { %"class.std::__uniq_ptr_impl.327" }
%"class.std::__uniq_ptr_impl.327" = type { %"class.std::tuple.328" }
%"class.std::tuple.328" = type { %"struct.std::_Tuple_impl.329" }
%"struct.std::_Tuple_impl.329" = type { %"struct.std::_Head_base.332" }
%"struct.std::_Head_base.332" = type { ptr }
%struct.Closure = type { %struct.grpc_closure, %class.anon.303 }

@.str.235 = private unnamed_addr constant [12 x i8] c"done-cancel\00", align 1

; Function Attrs: mustprogress nounwind uwtable
define linkonce_odr noundef zeroext i1 @_ZN9grpc_core8RefCount5UnrefEv(ptr noundef nonnull align 8 dereferenceable(8) %this) #5 comdat align 2 {
entry:
  %this.addr.i = alloca ptr, align 8
  %__i.addr.i = alloca i64, align 8
  %__m.addr.i = alloca i32, align 4
  %.atomictmp.i = alloca i64, align 8
  %atomic-temp.i = alloca i64, align 8
  %this.addr = alloca ptr, align 8
  %prior = alloca i64, align 8
  store ptr %this, ptr %this.addr, align 8
  %this1 = load ptr, ptr %this.addr, align 8
  %value_ = getelementptr inbounds %"class.grpc_core::RefCount", ptr %this1, i32 0, i32 0
  store ptr %value_, ptr %this.addr.i, align 8
  store i64 1, ptr %__i.addr.i, align 8
  store i32 4, ptr %__m.addr.i, align 4
  %this1.i = load ptr, ptr %this.addr.i, align 8
  %0 = load i32, ptr %__m.addr.i, align 4
  %1 = load i64, ptr %__i.addr.i, align 8
  store i64 %1, ptr %.atomictmp.i, align 8
  switch i32 %0, label %monotonic.i [
    i32 1, label %acquire.i
    i32 2, label %acquire.i
    i32 3, label %release.i
    i32 4, label %acqrel.i
    i32 5, label %seqcst.i
  ]

monotonic.i:                                      ; preds = %entry
  %2 = load i64, ptr %.atomictmp.i, align 8
  %3 = atomicrmw sub ptr %this1.i, i64 %2 monotonic, align 8
  store i64 %3, ptr %atomic-temp.i, align 8
  br label %_ZNSt13__atomic_baseIlE9fetch_subElSt12memory_order.exit

acquire.i:                                        ; preds = %entry, %entry
  %4 = load i64, ptr %.atomictmp.i, align 8
  %5 = atomicrmw sub ptr %this1.i, i64 %4 acquire, align 8
  store i64 %5, ptr %atomic-temp.i, align 8
  br label %_ZNSt13__atomic_baseIlE9fetch_subElSt12memory_order.exit

release.i:                                        ; preds = %entry
  %6 = load i64, ptr %.atomictmp.i, align 8
  %7 = atomicrmw sub ptr %this1.i, i64 %6 release, align 8
  store i64 %7, ptr %atomic-temp.i, align 8
  br label %_ZNSt13__atomic_baseIlE9fetch_subElSt12memory_order.exit

acqrel.i:                                         ; preds = %entry
  %8 = load i64, ptr %.atomictmp.i, align 8
  %9 = atomicrmw sub ptr %this1.i, i64 %8 acq_rel, align 8
  store i64 %9, ptr %atomic-temp.i, align 8
  br label %_ZNSt13__atomic_baseIlE9fetch_subElSt12memory_order.exit

seqcst.i:                                         ; preds = %entry
  %10 = load i64, ptr %.atomictmp.i, align 8
  %11 = atomicrmw sub ptr %this1.i, i64 %10 seq_cst, align 8
  store i64 %11, ptr %atomic-temp.i, align 8
  br label %_ZNSt13__atomic_baseIlE9fetch_subElSt12memory_order.exit

_ZNSt13__atomic_baseIlE9fetch_subElSt12memory_order.exit: ; preds = %seqcst.i, %acqrel.i, %release.i, %acquire.i, %monotonic.i
  %12 = load i64, ptr %atomic-temp.i, align 8
  store i64 %12, ptr %prior, align 8
  %13 = load i64, ptr %prior, align 8
  %cmp = icmp eq i64 %13, 1
  ret i1 %cmp
}

; Function Attrs: mustprogress uwtable
define linkonce_odr void @_Z17grpc_stream_unrefP20grpc_stream_refcount(ptr noundef %refcount) #4 comdat {
entry:
  %refcount.addr = alloca ptr, align 8
  store ptr %refcount, ptr %refcount.addr, align 8
  %0 = load ptr, ptr %refcount.addr, align 8
  %refs = getelementptr inbounds %struct.grpc_stream_refcount, ptr %0, i32 0, i32 0
  %call = call noundef zeroext i1 @_ZN9grpc_core8RefCount5UnrefEv(ptr noundef nonnull align 8 dereferenceable(8) %refs)
  br i1 %call, label %if.then, label %if.end

if.then:                                          ; preds = %entry
  %1 = load ptr, ptr %refcount.addr, align 8
  call void @_Z19grpc_stream_destroyP20grpc_stream_refcount(ptr noundef %1)
  br label %if.end

if.end:                                           ; preds = %if.then, %entry
  ret void
}

; Function Attrs: mustprogress nounwind uwtable
define linkonce_odr noundef ptr @_ZN4absl12lts_202308026Status12RepToPointerEm(i64 noundef %rep) #5 comdat align 2 {
entry:
  %rep.addr = alloca i64, align 8
  store i64 %rep, ptr %rep.addr, align 8
  %0 = load i64, ptr %rep.addr, align 8
  %sub = sub i64 %0, 1
  %1 = inttoptr i64 %sub to ptr
  ret ptr %1
}

; Function Attrs: mustprogress nounwind uwtable
define linkonce_odr noundef zeroext i1 @_ZN4absl12lts_202308026Status9IsInlinedEm(i64 noundef %rep) #5 comdat align 2 {
entry:
  %rep.addr = alloca i64, align 8
  store i64 %rep, ptr %rep.addr, align 8
  %0 = load i64, ptr %rep.addr, align 8
  %and = and i64 %0, 1
  %cmp = icmp eq i64 %and, 0
  ret i1 %cmp
}

; Function Attrs: mustprogress uwtable
define linkonce_odr void @_ZN15grpc_call_stack5UnrefEv(ptr noundef nonnull align 8 dereferenceable(48) %this) #4 comdat align 2 {
entry:
  %this.addr = alloca ptr, align 8
  store ptr %this, ptr %this.addr, align 8
  %this1 = load ptr, ptr %this.addr, align 8
  br label %do.body

do.body:                                          ; preds = %entry
  %refcount = getelementptr inbounds %struct.grpc_call_stack, ptr %this1, i32 0, i32 0
  call void @_Z17grpc_stream_unrefP20grpc_stream_refcount(ptr noundef %refcount)
  br label %do.end

do.end:                                           ; preds = %do.body
  ret void
}

; Function Attrs: mustprogress uwtable
define linkonce_odr void @_ZN4absl12lts_202308026Status3RefEm(i64 noundef %rep) #4 comdat align 2 {
entry:
  %this.addr.i = alloca ptr, align 8
  %__i.addr.i = alloca i32, align 4
  %__m.addr.i = alloca i32, align 4
  %.atomictmp.i = alloca i32, align 4
  %atomic-temp.i = alloca i32, align 4
  %rep.addr = alloca i64, align 8
  store i64 %rep, ptr %rep.addr, align 8
  %0 = load i64, ptr %rep.addr, align 8
  %call = call noundef zeroext i1 @_ZN4absl12lts_202308026Status9IsInlinedEm(i64 noundef %0)
  br i1 %call, label %if.end, label %if.then

if.then:                                          ; preds = %entry
  %1 = load i64, ptr %rep.addr, align 8
  %call1 = call noundef ptr @_ZN4absl12lts_202308026Status12RepToPointerEm(i64 noundef %1)
  %ref = getelementptr inbounds %"struct.absl::lts_20230802::status_internal::StatusRep", ptr %call1, i32 0, i32 0
  store ptr %ref, ptr %this.addr.i, align 8
  store i32 1, ptr %__i.addr.i, align 4
  store i32 0, ptr %__m.addr.i, align 4
  %this1.i = load ptr, ptr %this.addr.i, align 8
  %2 = load i32, ptr %__m.addr.i, align 4
  %3 = load i32, ptr %__i.addr.i, align 4
  store i32 %3, ptr %.atomictmp.i, align 4
  switch i32 %2, label %monotonic.i [
    i32 1, label %acquire.i
    i32 2, label %acquire.i
    i32 3, label %release.i
    i32 4, label %acqrel.i
    i32 5, label %seqcst.i
  ]

monotonic.i:                                      ; preds = %if.then
  %4 = load i32, ptr %.atomictmp.i, align 4
  %5 = atomicrmw add ptr %this1.i, i32 %4 monotonic, align 4
  store i32 %5, ptr %atomic-temp.i, align 4
  br label %_ZNSt13__atomic_baseIiE9fetch_addEiSt12memory_order.exit

acquire.i:                                        ; preds = %if.then, %if.then
  %6 = load i32, ptr %.atomictmp.i, align 4
  %7 = atomicrmw add ptr %this1.i, i32 %6 acquire, align 4
  store i32 %7, ptr %atomic-temp.i, align 4
  br label %_ZNSt13__atomic_baseIiE9fetch_addEiSt12memory_order.exit

release.i:                                        ; preds = %if.then
  %8 = load i32, ptr %.atomictmp.i, align 4
  %9 = atomicrmw add ptr %this1.i, i32 %8 release, align 4
  store i32 %9, ptr %atomic-temp.i, align 4
  br label %_ZNSt13__atomic_baseIiE9fetch_addEiSt12memory_order.exit

acqrel.i:                                         ; preds = %if.then
  %10 = load i32, ptr %.atomictmp.i, align 4
  %11 = atomicrmw add ptr %this1.i, i32 %10 acq_rel, align 4
  store i32 %11, ptr %atomic-temp.i, align 4
  br label %_ZNSt13__atomic_baseIiE9fetch_addEiSt12memory_order.exit

seqcst.i:                                         ; preds = %if.then
  %12 = load i32, ptr %.atomictmp.i, align 4
  %13 = atomicrmw add ptr %this1.i, i32 %12 seq_cst, align 4
  store i32 %13, ptr %atomic-temp.i, align 4
  br label %_ZNSt13__atomic_baseIiE9fetch_addEiSt12memory_order.exit

_ZNSt13__atomic_baseIiE9fetch_addEiSt12memory_order.exit: ; preds = %seqcst.i, %acqrel.i, %release.i, %acquire.i, %monotonic.i
  br label %if.end

if.end:                                           ; preds = %_ZNSt13__atomic_baseIiE9fetch_addEiSt12memory_order.exit, %entry
  ret void
}

; Function Attrs: mustprogress uwtable
define internal void @"_ZZN9grpc_core21promise_filter_detail14ServerCallData9CompletedEN4absl12lts_202308026StatusEbPNS0_12BaseCallData7FlusherEENK3$_0clES4_"(ptr noundef nonnull align 8 dereferenceable(16) %this, ptr noundef %0) #4 align 2 {
entry:
  %this.addr = alloca ptr, align 8
  %.indirect_addr = alloca ptr, align 8
  store ptr %this, ptr %this.addr, align 8
  store ptr %0, ptr %.indirect_addr, align 8
  %this1 = load ptr, ptr %this.addr, align 8
  %1 = getelementptr inbounds %class.anon.303, ptr %this1, i32 0, i32 0
  %2 = load ptr, ptr %1, align 8
  call void @_ZN9grpc_core12CallCombiner4StopEPKc(ptr noundef nonnull align 8 dereferenceable(96) %2, ptr noundef @.str.235)
  %3 = getelementptr inbounds %class.anon.303, ptr %this1, i32 0, i32 1
  %4 = load ptr, ptr %3, align 8
  call void @_ZN15grpc_call_stack5UnrefEv(ptr noundef nonnull align 8 dereferenceable(48) %4)
  ret void
}

; Function Attrs: mustprogress uwtable
define linkonce_odr void @_ZN4absl12lts_202308026StatusC2ERKS1_(ptr noundef nonnull align 8 dereferenceable(8) %this, ptr noundef nonnull align 8 dereferenceable(8) %x) unnamed_addr #4 comdat align 2 {
entry:
  %this.addr = alloca ptr, align 8
  %x.addr = alloca ptr, align 8
  store ptr %this, ptr %this.addr, align 8
  store ptr %x, ptr %x.addr, align 8
  %this1 = load ptr, ptr %this.addr, align 8
  %rep_ = getelementptr inbounds %"class.absl::lts_20230802::Status", ptr %this1, i32 0, i32 0
  %0 = load ptr, ptr %x.addr, align 8
  %rep_2 = getelementptr inbounds %"class.absl::lts_20230802::Status", ptr %0, i32 0, i32 0
  %1 = load i64, ptr %rep_2, align 8
  store i64 %1, ptr %rep_, align 8
  %rep_3 = getelementptr inbounds %"class.absl::lts_20230802::Status", ptr %this1, i32 0, i32 0
  %2 = load i64, ptr %rep_3, align 8
  call void @_ZN4absl12lts_202308026Status3RefEm(i64 noundef %2)
  ret void
}

; Function Attrs: mustprogress uwtable
define internal void @"_ZZN9grpc_core10NewClosureIZNS_21promise_filter_detail14ServerCallData9CompletedEN4absl12lts_202308026StatusEbPNS1_12BaseCallData7FlusherEE3$_0EEP12grpc_closureT_EN7Closure3RunEPvS5_"(ptr noundef %arg, ptr noundef %error) #4 align 2 personality ptr @__gxx_personality_v0 {
entry:
  %arg.addr = alloca ptr, align 8
  %error.indirect_addr = alloca ptr, align 8
  %self = alloca ptr, align 8
  %agg.tmp = alloca %"class.absl::lts_20230802::Status", align 8
  %exn.slot = alloca ptr, align 8
  %ehselector.slot = alloca i32, align 4
  store ptr %arg, ptr %arg.addr, align 8
  store ptr %error, ptr %error.indirect_addr, align 8
  %0 = load ptr, ptr %arg.addr, align 8
  store ptr %0, ptr %self, align 8
  %1 = load ptr, ptr %self, align 8
  %f = getelementptr inbounds %struct.Closure, ptr %1, i32 0, i32 1
  call void @_ZN4absl12lts_202308026StatusC2ERKS1_(ptr noundef nonnull align 8 dereferenceable(8) %agg.tmp, ptr noundef nonnull align 8 dereferenceable(8) %error)
  invoke void @"_ZZN9grpc_core21promise_filter_detail14ServerCallData9CompletedEN4absl12lts_202308026StatusEbPNS0_12BaseCallData7FlusherEENK3$_0clES4_"(ptr noundef nonnull align 8 dereferenceable(16) %f, ptr noundef %agg.tmp)
          to label %invoke.cont unwind label %lpad

invoke.cont:                                      ; preds = %entry
  call void @_ZN4absl12lts_202308026StatusD2Ev(ptr noundef nonnull align 8 dereferenceable(8) %agg.tmp) #3
  %2 = load ptr, ptr %self, align 8
  %isnull = icmp eq ptr %2, null
  br i1 %isnull, label %delete.end, label %delete.notnull

delete.notnull:                                   ; preds = %invoke.cont
  call void @_ZdlPv(ptr noundef %2) #19
  br label %delete.end

delete.end:                                       ; preds = %delete.notnull, %invoke.cont
  ret void

lpad:                                             ; preds = %entry
  %3 = landingpad { ptr, i32 }
          cleanup
  %4 = extractvalue { ptr, i32 } %3, 0
  store ptr %4, ptr %exn.slot, align 8
  %5 = extractvalue { ptr, i32 } %3, 1
  store i32 %5, ptr %ehselector.slot, align 4
  call void @_ZN4absl12lts_202308026StatusD2Ev(ptr noundef nonnull align 8 dereferenceable(8) %agg.tmp) #3
  br label %eh.resume

eh.resume:                                        ; preds = %lpad
  %exn = load ptr, ptr %exn.slot, align 8
  %sel = load i32, ptr %ehselector.slot, align 4
  %lpad.val = insertvalue { ptr, i32 } poison, ptr %exn, 0
  %lpad.val1 = insertvalue { ptr, i32 } %lpad.val, i32 %sel, 1
  resume { ptr, i32 } %lpad.val1
}