; Function Attrs: mustprogress uwtable
define internal void @"_ZZN9grpc_core10NewClosureIZNS_21promise_filter_detail14ServerCallData9CompletedEN4absl12lts_202308026StatusEbPNS1_12BaseCallData7FlusherEE3$_0EEP12grpc_closureT_EN7Closure3RunEPvS5_"(ptr noundef %arg, ptr nocapture noundef readonly %error) #3 align 2 personality ptr @__gxx_personality_v0 {
entry:
  %agg.tmp = alloca %"class.absl::lts_20230802::Status", align 8
  %f = getelementptr inbounds i8, ptr %arg, i64 32
  %0 = load i64, ptr %error, align 8
  store i64 %0, ptr %agg.tmp, align 8
  %and.i.i.i = and i64 %0, 1
  %cmp.i.i.i = icmp eq i64 %and.i.i.i, 0
  br i1 %cmp.i.i.i, label %_ZN4absl12lts_202308026StatusC2ERKS1_.exit, label %if.then.i.i

if.then.i.i:                                      ; preds = %entry
  %sub.i.i.i = add nsw i64 %0, -1
  %1 = inttoptr i64 %sub.i.i.i to ptr
  %2 = atomicrmw add ptr %1, i32 1 monotonic, align 4
  br label %_ZN4absl12lts_202308026StatusC2ERKS1_.exit

_ZN4absl12lts_202308026StatusC2ERKS1_.exit:       ; preds = %entry, %if.then.i.i
  %3 = load ptr, ptr %f, align 8
  invoke void @_ZN9grpc_core12CallCombiner4StopEPKc(ptr noundef nonnull align 8 dereferenceable(96) %3, ptr noundef nonnull @.str.235)
          to label %.noexc unwind label %lpad

.noexc:                                           ; preds = %_ZN4absl12lts_202308026StatusC2ERKS1_.exit
  %4 = getelementptr inbounds i8, ptr %arg, i64 40
  %5 = load ptr, ptr %4, align 8
  %6 = atomicrmw sub ptr %5, i64 1 acq_rel, align 8
  %cmp.i.i.i.i = icmp eq i64 %6, 1
  br i1 %cmp.i.i.i.i, label %if.then.i.i.i, label %invoke.cont

if.then.i.i.i:                                    ; preds = %.noexc
  invoke void @_Z19grpc_stream_destroyP20grpc_stream_refcount(ptr noundef nonnull %5)
          to label %invoke.cont unwind label %lpad

invoke.cont:                                      ; preds = %.noexc, %if.then.i.i.i
  %7 = load i64, ptr %agg.tmp, align 8
  %and.i.i.i3 = and i64 %7, 1
  %cmp.i.i.i4 = icmp eq i64 %and.i.i.i3, 0
  br i1 %cmp.i.i.i4, label %delete.end, label %if.then.i.i5

if.then.i.i5:                                     ; preds = %invoke.cont
  invoke void @_ZN4absl12lts_202308026Status15UnrefNonInlinedEm(i64 noundef %7)
          to label %delete.end unwind label %terminate.lpad.i

terminate.lpad.i:                                 ; preds = %if.then.i.i5
  %8 = landingpad { ptr, i32 }
          catch ptr null
  %9 = extractvalue { ptr, i32 } %8, 0
  tail call void @__clang_call_terminate(ptr %9) #32
  unreachable

delete.end:                                       ; preds = %invoke.cont, %if.then.i.i5
  tail call void @_ZdlPv(ptr noundef nonnull %arg) #34
  ret void

lpad:                                             ; preds = %if.then.i.i.i, %_ZN4absl12lts_202308026StatusC2ERKS1_.exit
  %10 = landingpad { ptr, i32 }
          cleanup
  call void @_ZN4absl12lts_202308026StatusD2Ev(ptr noundef nonnull align 8 dereferenceable(8) %agg.tmp) #31
  resume { ptr, i32 } %10
}